; Function Attrs: nounwind uwtable
define ptr @l_Lean_ForEachExprWhere_visit_go___rarg(ptr noundef %0, ptr noundef %1, ptr noundef %2, ptr noundef %3, ptr noundef %4, i8 noundef zeroext %5, ptr noundef %6, ptr noundef %7) local_unnamed_addr #0 {
  %9 = getelementptr inbounds nuw i8, ptr %2, i64 16
  %10 = load ptr, ptr %9, align 8, !tbaa !9
  %11 = ptrtoint ptr %10 to i64
  %12 = and i64 %11, 1
  %.not = icmp eq i64 %12, 0
  br i1 %.not, label %13, label %lean_inc.exit37

13:                                               ; preds = %8
  %.val.i = load i32, ptr %10, align 4, !tbaa !4
  %14 = icmp sgt i32 %.val.i, 0
  br i1 %14, label %15, label %17, !prof !11

15:                                               ; preds = %13
  %16 = add nuw i32 %.val.i, 1
  store i32 %16, ptr %10, align 4, !tbaa !4
  br label %lean_inc.exit37

17:                                               ; preds = %13
  %.not.i = icmp eq i32 %.val.i, 0
  br i1 %.not.i, label %lean_inc.exit37, label %18

18:                                               ; preds = %17
  tail call void @lean_inc_ref_cold(ptr noundef nonnull %10) #3
  br label %lean_inc.exit37

lean_inc.exit37:                                  ; preds = %18, %17, %15, %8
  %19 = ptrtoint ptr %7 to i64
  %20 = and i64 %19, 1
  %.not53 = icmp eq i64 %20, 0
  br i1 %.not53, label %21, label %lean_inc.exit36

21:                                               ; preds = %lean_inc.exit37
  %.val.i38 = load i32, ptr %7, align 4, !tbaa !4
  %22 = icmp sgt i32 %.val.i38, 0
  br i1 %22, label %23, label %25, !prof !11

23:                                               ; preds = %21
  %24 = add nuw i32 %.val.i38, 1
  store i32 %24, ptr %7, align 4, !tbaa !4
  br label %lean_inc.exit36

25:                                               ; preds = %21
  %.not.i39 = icmp eq i32 %.val.i38, 0
  br i1 %.not.i39, label %lean_inc.exit36, label %26

26:                                               ; preds = %25
  tail call void @lean_inc_ref_cold(ptr noundef nonnull %7) #3
  br label %lean_inc.exit36

lean_inc.exit36:                                  ; preds = %26, %25, %23, %lean_inc.exit37
  %27 = ptrtoint ptr %6 to i64
  %28 = and i64 %27, 1
  %.not54 = icmp eq i64 %28, 0
  br i1 %.not54, label %29, label %lean_inc.exit35

29:                                               ; preds = %lean_inc.exit36
  %.val.i41 = load i32, ptr %6, align 4, !tbaa !4
  %30 = icmp sgt i32 %.val.i41, 0
  br i1 %30, label %31, label %33, !prof !11

31:                                               ; preds = %29
  %32 = add nuw i32 %.val.i41, 1
  store i32 %32, ptr %6, align 4, !tbaa !4
  br label %lean_inc.exit35

33:                                               ; preds = %29
  %.not.i42 = icmp eq i32 %.val.i41, 0
  br i1 %.not.i42, label %lean_inc.exit35, label %34

34:                                               ; preds = %33
  tail call void @lean_inc_ref_cold(ptr noundef nonnull %6) #3
  br label %lean_inc.exit35

lean_inc.exit35:                                  ; preds = %34, %33, %31, %lean_inc.exit36
  %35 = ptrtoint ptr %2 to i64
  %36 = and i64 %35, 1
  %.not55 = icmp eq i64 %36, 0
  br i1 %.not55, label %37, label %lean_inc.exit34

37:                                               ; preds = %lean_inc.exit35
  %.val.i44 = load i32, ptr %2, align 4, !tbaa !4
  %38 = icmp sgt i32 %.val.i44, 0
  br i1 %38, label %39, label %41, !prof !11

39:                                               ; preds = %37
  %40 = add nuw i32 %.val.i44, 1
  store i32 %40, ptr %2, align 4, !tbaa !4
  br label %lean_inc.exit34

41:                                               ; preds = %37
  %.not.i45 = icmp eq i32 %.val.i44, 0
  br i1 %.not.i45, label %lean_inc.exit34, label %42

42:                                               ; preds = %41
  tail call void @lean_inc_ref_cold(ptr noundef nonnull %2) #3
  br label %lean_inc.exit34

lean_inc.exit34:                                  ; preds = %42, %41, %39, %lean_inc.exit35
  %43 = ptrtoint ptr %1 to i64
  %44 = and i64 %43, 1
  %.not56 = icmp eq i64 %44, 0
  br i1 %.not56, label %45, label %lean_inc.exit33

45:                                               ; preds = %lean_inc.exit34
  %.val.i47 = load i32, ptr %1, align 4, !tbaa !4
  %46 = icmp sgt i32 %.val.i47, 0
  br i1 %46, label %47, label %49, !prof !11

47:                                               ; preds = %45
  %48 = add nuw i32 %.val.i47, 1
  store i32 %48, ptr %1, align 4, !tbaa !4
  br label %lean_inc.exit33

49:                                               ; preds = %45
  %.not.i48 = icmp eq i32 %.val.i47, 0
  br i1 %.not.i48, label %lean_inc.exit33, label %50

50:                                               ; preds = %49
  tail call void @lean_inc_ref_cold(ptr noundef nonnull %1) #3
  br label %lean_inc.exit33

lean_inc.exit33:                                  ; preds = %50, %49, %47, %lean_inc.exit34
  %51 = tail call ptr @l_Lean_ForEachExprWhere_visited___rarg(ptr noundef %1, ptr noundef nonnull %2, ptr noundef %6, ptr noundef %7)
  br i1 %.not, label %52, label %lean_inc.exit

52:                                               ; preds = %lean_inc.exit33
  %.val.i50 = load i32, ptr %10, align 4, !tbaa !4
  %53 = icmp sgt i32 %.val.i50, 0
  br i1 %53, label %54, label %56, !prof !11

54:                                               ; preds = %52
  %55 = add nuw i32 %.val.i50, 1
  store i32 %55, ptr %10, align 4, !tbaa !4
  br label %lean_inc.exit

56:                                               ; preds = %52
  %.not.i51 = icmp eq i32 %.val.i50, 0
  br i1 %.not.i51, label %lean_inc.exit, label %57

57:                                               ; preds = %56
  tail call void @lean_inc_ref_cold(ptr noundef nonnull %10) #3
  br label %lean_inc.exit

lean_inc.exit:                                    ; preds = %57, %56, %54, %lean_inc.exit33
  tail call void @lean_inc_heartbeat() #3
  %58 = tail call noalias ptr @mi_malloc_small(i64 noundef 96) #3
  %59 = icmp eq ptr %58, null
  br i1 %59, label %60, label %lean_alloc_closure.exit

60:                                               ; preds = %lean_inc.exit
  tail call void @lean_internal_panic_out_of_memory() #4
  unreachable

lean_alloc_closure.exit:                          ; preds = %lean_inc.exit
  %61 = zext i8 %5 to i64
  %62 = shl nuw nsw i64 %61, 1
  %63 = or disjoint i64 %62, 1
  %64 = inttoptr i64 %63 to ptr
  %65 = getelementptr inbounds nuw i8, ptr %58, i64 4
  store i32 1, ptr %58, align 4, !tbaa !4
  store i32 -184549280, ptr %65, align 4
  %66 = getelementptr inbounds nuw i8, ptr %58, i64 8
  store ptr @l_Lean_ForEachExprWhere_visit_go___rarg___lambda__7___boxed, ptr %66, align 8, !tbaa !9
  %67 = getelementptr inbounds nuw i8, ptr %58, i64 16
  store i16 10, ptr %67, align 8, !tbaa !15
  %68 = getelementptr inbounds nuw i8, ptr %58, i64 18
  store i16 9, ptr %68, align 2, !tbaa !15
  %69 = getelementptr inbounds nuw i8, ptr %58, i64 24
  store ptr %6, ptr %69, align 8, !tbaa !9
  %70 = getelementptr inbounds nuw i8, ptr %58, i64 32
  store ptr %2, ptr %70, align 8, !tbaa !9
  %71 = getelementptr inbounds nuw i8, ptr %58, i64 40
  store ptr %0, ptr %71, align 8, !tbaa !9
  %72 = getelementptr inbounds nuw i8, ptr %58, i64 48
  store ptr %1, ptr %72, align 8, !tbaa !9
  %73 = getelementptr inbounds nuw i8, ptr %58, i64 56
  store ptr %3, ptr %73, align 8, !tbaa !9
  %74 = getelementptr inbounds nuw i8, ptr %58, i64 64
  store ptr %4, ptr %74, align 8, !tbaa !9
  %75 = getelementptr inbounds nuw i8, ptr %58, i64 72
  store ptr %64, ptr %75, align 8, !tbaa !9
  %76 = getelementptr inbounds nuw i8, ptr %58, i64 80
  store ptr %10, ptr %76, align 8, !tbaa !9
  %77 = getelementptr inbounds nuw i8, ptr %58, i64 88
  store ptr %7, ptr %77, align 8, !tbaa !9
  %78 = tail call ptr @lean_apply_4(ptr noundef %10, ptr noundef nonnull inttoptr (i64 1 to ptr), ptr noundef nonnull inttoptr (i64 1 to ptr), ptr noundef %51, ptr noundef nonnull %58) #3
  ret ptr %78
}